(dp1
S'output'
p2
S'missing "pass" in view'
p3
sS'layer'
p4
S'ParserContainer'
p5
sS'code'
p6
S'response.write(\'<!DOCTYPE html>\\n<!--[if (gt IE 9)|!(IE)]><!--> <html class="no-js" lang="\', escape=False)\nresponse.write(T.accepted_language or \'en\')\nresponse.write(\'"> <!--<![endif]-->\\n  <head>\\n    <meta charset="utf-8">\\n    <!-- www.phpied.com/conditional-comments-block-downloads/ -->\\n    <!-- Always force latest IE rendering engine\\n         (even in intranet) & Chrome Frame\\n         Remove this if you use the .htaccess -->\\n    <meta http-equiv="X-UA-Compatible" content="IE=edge\', escape=False)\nresponse.write(not request.is_local and \',chrome=1\' or \'\')\nresponse.write(\'">\\n    <!--  Mobile Viewport Fix\\n          j.mp/mobileviewport & davidbcalhoun.com/2010/viewport-metatag\\n          device-width: Occupy full width of the screen in its current orientation\\n          initial-scale = 1.0 retains dimensions instead of zooming out if page height > device height\\n          user-scalable = yes allows the user to zoom in -->\\n    <meta name="viewport" content="width=device-width, initial-scale=1.0">\\n    <title>\', escape=False)\nresponse.write(response.title or request.application)\nresponse.write(\'</title>\\n    <!-- http://dev.w3.org/html5/markup/meta.name.html -->\\n    <meta name="application-name" content="\', escape=False)\nresponse.write(request.application)\nresponse.write(\'">\\n    <!-- Speaking of Google, don\\\'t forget to set your site up:\\n         http://google.com/webmasters -->\\n    <meta name="google-site-verification" content="">\\n    <!-- include stylesheets -->\\n    <link rel="stylesheet" href="https://cdnjs.cloudflare.com/ajax/libs/font-awesome/4.7.0/css/font-awesome.min.css"/>\\n    <link rel="stylesheet" href="\', escape=False)\nresponse.write(URL(\'static\',\'css/bootstrap.min.css\'))\nresponse.write(\'"/>\\n    <link rel="stylesheet" href="\', escape=False)\nresponse.write(URL(\'static\',\'css/web2py-bootstrap4.css\'))\nresponse.write(\'"/>\\n    <link rel="shortcut icon" href="\', escape=False)\nresponse.write(URL(\'static\',\'images/favicon.ico\'))\nresponse.write(\'" type="image/x-icon">\\n    <link rel="apple-touch-icon" href="\', escape=False)\nresponse.write(URL(\'static\',\'images/favicon.png\'))\nresponse.write(\'">\\n    <!-- All JavaScript at the bottom, except for Modernizr which enables\\n         HTML5 elements & feature detects -->\\n    <script src="\', escape=False)\nresponse.write(URL(\'static\',\'js/modernizr-2.8.3.min.js\'))\nresponse.write(\'"></script>\\n    <!-- Favicons -->\\n    \', escape=False)\nresponse.write(\'<script type="text/javascript"><!--\\n    // These variables are used by the web2py_ajax_init function in web2py_ajax.js (which is loaded below).\\n    \', escape=False)\nresponse.write(ASSIGNJS(\nw2p_ajax_confirm_message = T(\'Are you sure you want to delete this object?\'),\nw2p_ajax_disable_with_message = T(\'Working...\'),\nw2p_ajax_date_format = T(\'%Y-%m-%d\'),\nw2p_ajax_datetime_format = T(\'%Y-%m-%d %H:%M:%S\'),\najax_error_500 = T.M(\'An error occured, please [[reload %s]] the page\') % URL(args=request.args, vars=request.get_vars)\n))\nresponse.write(\'\\n    //--></script>\\n\', escape=False)\nresponse.files.insert(0,URL(\'static\',\'js/jquery.js\'))\nresponse.files.insert(1,URL(\'static\',\'css/calendar.css\'))\nresponse.files.insert(2,URL(\'static\',\'js/calendar.js\'))\nresponse.files.insert(3,URL(\'static\',\'js/web2py.js\'))\nresponse.include_meta()\nresponse.include_files()\nresponse.write(\'\\n\', escape=False)\nresponse.write(\' <!-- this includes jquery.js, calendar.js/.css and web2py.js -->\\n    \', escape=False)\nresponse.write(\'\\n  </head>\\n  <body>\\n    <div class="w2p_flash alert alert-dismissable">\', escape=False)\nresponse.write(response.flash or \'\')\nresponse.write(\'</div>\\n    <!-- Navbar ======================================= -->\\n    <nav class="navbar navbar-light navbar-expand-md bg-faded justify-content-center">\\n       <a href="#" class="navbar-brand d-flex w-50 mr-auto">Rogoberto Ribeiro</a>\\n       <button class="navbar-toggler" type="button" data-toggle="collapse" data-target="#navbarNavDropdown" aria-controls="navbarNavDropdown" aria-expanded="false" aria-label="Toggle navigation">\\n         <span class="navbar-toggler-icon"></span>\\n       </button>\\n       <div class="navbar-collapse collapse w-100" id="navbarNavDropdown">\\n         <ul class="navbar-nav w-100 justify-content-center">\\n          \', escape=False)\nfor _item in response.menu or []:\n    response.write(\'\\n          \', escape=False)\n    if len(_item)<4 or not _item[3]:\n        response.write(\'\\n          <li class="nav-item \', escape=False)\n        if _item[1]:\n            response.write(\'active\', escape=False)\n            pass\n        response.write(\'">\\n            <a class="nav-link" href="\', escape=False)\n        response.write(_item[2])\n        response.write(\'">\', escape=False)\n        response.write(_item[0])\n        response.write(\'</a>\\n          </li>\\n          \', escape=False)\n    else:\n        response.write(\'\\n          <li class="nav-item dropdown">\\n            <a class="nav-link dropdown-toggle" href="\', escape=False)\n        response.write(_item[2])\n        response.write(\'" data-toggle="dropdown" aria-haspopup="true" aria-expanded="false">\', escape=False)\n        response.write(_item[0])\n        response.write(\'</a>\\n            <div class="dropdown-menu">\\n              \', escape=False)\n        for _subitem in _item[3]:\n            response.write(\'\\n              <a class="dropdown-item" href="\', escape=False)\n            response.write(_subitem[2])\n            response.write(\'">\', escape=False)\n            response.write(_subitem[0])\n            response.write(\'</a>\\n              \', escape=False)\n            pass\n        response.write(\'\\n            </div>\\n          </li>\\n          \', escape=False)\n        pass\n    response.write(\'\\n          \', escape=False)\n    pass\nresponse.write(\'\\n        </ul>\\n         \\n        \', escape=False)\nif \'auth\' in globals():\n    response.write(\'\\n        <ul class="nav navbar-nav ml-auto w-100 justify-content-end">\\n          <li class="nav-item dropdown">\\n            <a class="nav-link dropdown-toggle" href="#" data-toggle="dropdown" aria-haspopup="true" aria-expanded="false">\\n              \', escape=False)\n    if auth.user:\n        response.write(auth.user.first_name)\n    else:\n        response.write(\'LOGIN\', escape=False)\n        pass\n    response.write(\'\\n            </a>\\n            <div class="dropdown-menu dropdown-menu-right">\\n              \', escape=False)\n    if auth.user:\n        response.write(\'\\n              <a class="dropdown-item" href="\', escape=False)\n        response.write(URL(\'default\',\'user/profile\'))\n        response.write(\'">\', escape=False)\n        response.write(T(\'Profile\'))\n        response.write(\'</a>\\n              \', escape=False)\n        if \'change_password\' not in auth.settings.actions_disabled:\n            response.write(\'\\n              <a class="dropdown-item" href="\', escape=False)\n            response.write(URL(\'default\',\'user/change_password\'))\n            response.write(\'">\', escape=False)\n            response.write(T(\'Change Password\'))\n            response.write(\'</a>\\n              \', escape=False)\n            pass\n        response.write(\'\\n              <a class="dropdown-item" href="\', escape=False)\n        response.write(URL(\'default\',\'user/logout\'))\n        response.write(\'">\', escape=False)\n        response.write(T(\'Logout\'))\n        response.write(\'</a>\\n              \', escape=False)\n    else:\n        response.write(\'\\n              <a class="dropdown-item" href="\', escape=False)\n        response.write(URL(\'default\',\'user/login\'))\n        response.write(\'">\', escape=False)\n        response.write(T(\'Login\'))\n        response.write(\'</a>\\n              \', escape=False)\n        if \'register\' not in auth.settings.actions_disabled:\n            response.write(\'\\n              <a class="dropdown-item" href="\', escape=False)\n            response.write(URL(\'default\',\'user/register\'))\n            response.write(\'">\', escape=False)\n            response.write(T(\'Sign up\'))\n            response.write(\'</a>\\n              \', escape=False)\n            pass\n        response.write(\'\\n              \', escape=False)\n        if \'retrieve_password\' not in auth.settings.actions_disabled:\n            response.write(\'\\n              <a class="dropdown-item" href="\', escape=False)\n            response.write(URL(\'default\',\'user/retrieve_password\'))\n            response.write(\'">\', escape=False)\n            response.write(T(\'Lost Password\'))\n            response.write(\'</a>\\n              \', escape=False)\n            pass\n        response.write(\'\\n              \', escape=False)\n        pass\n    response.write(\'\\n            </div>\\n          </li>\\n        </ul>\\n        \', escape=False)\n    pass\nresponse.write(\'\\n      </div>\\n    </nav>\\n\\n    <!-- Masthead ===================================== -->\\n    \', escape=False)\nresponse.write(\'\\n    \', escape=False)\nresponse.write(\'\\n    <!-- Main ========================================= -->\\n    <!-- Begin page content -->\\n    <div class="container-fluid main-container">\\n        <div class="section">\\n      <div class="container">\\n        <div class="row">\\n          <div class="col-md-12">\\n      \', escape=False)\nresponse.write(\'\\n\\n<nav class="navbar navbar-expand-md navbar-dark bg-dark">\\n    <div class="container"> <button class="navbar-toggler navbar-toggler-right border-0" type="button" data-toggle="collapse" data-target="#navbar10">\\n        <span class="navbar-toggler-icon"></span>\\n      </button>\\n      <div class="collapse navbar-collapse" id="navbar10">\\n        <ul class="navbar-nav ml-auto">\\n          <li class="nav-item"> <a class="nav-link" href="\', escape=False)\nresponse.write(URL(\'projeto\',\'acesso_geral_projeto\', args=projeto.id))\nresponse.write(\'">Acesso Geral</a> </li>\\n          <li class="nav-item"> <a class="nav-link" href="\', escape=False)\nresponse.write(URL(\'projeto\',\'prestacao_venda\', args=projeto.id))\nresponse.write(\'">Presta\\xc3\\xa7\\xc3\\xa3o Venda</a> </li>\\n          <li class="nav-item"> <a class="nav-link" href="\', escape=False)\nresponse.write(URL(\'projeto\',\'investimento\', args=projeto.id))\nresponse.write(\'">Investimento</a> </li>\\n          <li class="nav-item"> <a class="nav-link" href="\', escape=False)\nresponse.write(URL(\'projeto\',\'prestacao_cobr\', args=projeto.id))\nresponse.write(\'">Presta\\xc3\\xa7\\xc3\\xa3o Cobran\\xc3\\xa7a</a> </li>\\n          <li class="nav-item"> <a class="nav-link" href="\', escape=False)\nresponse.write(URL(\'projeto\',\'lucros_prej\', args=projeto.id))\nresponse.write(\'">Relatorio Lucros</a> </li>\\n        </ul>\\n      </div>\\n    </div>\\n  </nav>\\n<br><br>\\n\\n\', escape=False)\ntotal_retorno=0\nresponse.write(\'\\n\', escape=False)\ntotal_mercadoria=0\nresponse.write(\'\\n\', escape=False)\ntotal_venda=0\nresponse.write(\'\\n <div class="section">\\n              <div class="container">\\n                  <h4 class="d-flex justify-content-between mb-3"> <span class="text-muted">Presta\\xc3\\xa7\\xc3\\xa3o de Contas (Venda)</span> </h4><a class="btn btn-primary" href="\', escape=False)\nresponse.write(URL(\'projeto\',\'alterar_dados_chegada_venda\', args=projeto.id))\nresponse.write(\'">Inserir Dados</a><br><br>\\n                <div class="row">\\n                    \\n                  <div class="col-md-6">\\n          <h4 class="d-flex justify-content-between mb-3"> <span class="text-muted">Informa\\xc3\\xa7\\xc3\\xb5es Mercadoria</span> </h4>\\n          <ul class="list-group">\\n            <li class="list-group-item d-flex justify-content-between">\\n              <div>\\n                <h6 class="my-0"><b>Total Mercadoria&nbsp;</b></h6> <small class="text-muted">\', escape=False)\nresponse.write(projeto.total_quant_pcs_envio)\nresponse.write(\' Pe\\xc3\\xa7as</small>\\n\', escape=False)\ntotal_mercadoria=projeto.total_preco_envio\nresponse.write(\'\\n              </div> <span class="text-muted">R$ \', escape=False)\nresponse.write(projeto.total_preco_envio)\nresponse.write(\'0</span>\\n            </li>\\n            <li class="list-group-item d-flex justify-content-between">\\n              <div>\\n                <h6 class="my-0"><b>Total Retorno</b></h6> <small class="text-muted">\', escape=False)\nresponse.write(projeto.total_quant_pcs_retorno)\nresponse.write(\' Pe\\xc3\\xa7as</small>\\n                  \', escape=False)\ntotal_retorno=projeto.total_preco_retorno\nresponse.write(\'\\n              </div> <span class="text-muted">R$ \', escape=False)\nresponse.write(projeto.total_preco_retorno)\nresponse.write(\'0</span>\\n            </li>\\n            <li class="list-group-item d-flex justify-content-between">\\n              <div>\\n                <h6 class="my-0"><b>Total Venda \\xc3\\xa0 Praso</b></h6> <small class="text-muted">\', escape=False)\nresponse.write(projeto.total_quant_fichas)\nresponse.write(\' Fichas</small>\\n                  \', escape=False)\ntotal_venda=projeto.total_venda\nresponse.write(\'\\n              </div> <span class="text-muted">R$ \', escape=False)\nresponse.write(projeto.total_venda)\nresponse.write(\'0</span>\\n            </li><br>\\n          <h4 class="d-flex justify-content-between mb-3"> <span class="text-muted">Saldo Chefe&nbsp;</span> </h4>\\n            <li class="list-group-item d-flex justify-content-between bg-light">\\n              <div class="text-success">\', escape=False)\ndiferenca=total_mercadoria-total_retorno-total_venda\nresponse.write(\'\\n                <h6 class="my-0"><b>Venda \\xc3\\xa0 Vista</b></h6> <small>\', escape=False)\nresponse.write(diferenca)\nresponse.write(\'0 Difer\\xc3\\xaan\\xc3\\xa7a&nbsp;</small>\\n                  \\n                  \', escape=False)\navista=0\nresponse.write(\'\\n                  \', escape=False)\nif total_venda>0:\n    response.write(\'\\n                  \', escape=False)\n    avista=diferenca/2\n    response.write(\'\\n                  \', escape=False)\n    pass\nresponse.write(\'\\n              </div> <span class="text-success">R$ \', escape=False)\nresponse.write(avista)\nresponse.write(\'0</span>\\n            </li>\\n            <li class="list-group-item d-flex justify-content-between">\\n              <div>\\n                <h6 class="my-0">Adiantamento</h6> <small class="text-muted">Dinheiro Emprestado para Venda</small>\\n           \', escape=False)\nadiantamento=projeto.adiantamento_dinh_venda\nresponse.write(\'\\n                </div> <span class="text-muted">R$ \', escape=False)\nresponse.write(projeto.adiantamento_dinh_venda)\nresponse.write(\'0</span>\\n            </li>\\n            <li class="list-group-item d-flex justify-content-between">\\n              <div>\\n                <h6 class="my-0">Entradas da Venda</h6> <small class="text-muted">Recebido de entrada da venda</small>\\n                  \', escape=False)\nentradas=projeto.total_entradas_venda\nresponse.write(\'\\n              </div> <span class="text-muted">R$ \', escape=False)\nresponse.write(entradas)\nresponse.write(\'0</span>\\n            </li>\\n              \', escape=False)\ndin_viagem=entradas+avista+adiantamento\nresponse.write(\'\\n            <li class="list-group-item d-flex justify-content-between"> <span>Total do Dinheiro da Viagem</span> <b contenteditable="true">R$ \', escape=False)\nresponse.write(din_viagem)\nresponse.write(\'0</b> </li>\\n          </ul>\\n        </div>\\n     \\n                  <div class="col-md-6">\\n            \', escape=False)\ndiferenca=din_viagem\nresponse.write(\'\\n          <h4 class="d-flex justify-content-between mb-3"> <span class="text-muted">Valor Apresentado</span> </h4>\\n          <ul class="list-group">\\n            <li class="list-group-item d-flex justify-content-between">\\n              <div>\', escape=False)\ndiferenca-=projeto.total_valor_depesa_venda\nresponse.write(\'\\n                  \', escape=False)\nperc_despesa=0.0\nresponse.write(\'\\n                  \', escape=False)\nif projeto.total_valor_depesa_venda > 0.0:\n    response.write(\'\\n                   \', escape=False)\n    perc_despesa=projeto.total_valor_depesa_venda/projeto.total_venda*100\n    response.write(\'\\n                  \', escape=False)\n    pass\nresponse.write(\'\\n                <h6 class="my-0"><b>Total Despesa</b></h6> <small class="text-muted">\', escape=False)\nresponse.write(perc_despesa)\nresponse.write(\' %</small>\\n              </div> <span class="text-muted">R$ \', escape=False)\nresponse.write(projeto.total_valor_depesa_venda)\nresponse.write(\'0</span>\\n            </li>\\n            <li class="list-group-item d-flex justify-content-between">\\n              <div>\', escape=False)\ndiferenca-=projeto.total_vale_caderno_vendedor\nresponse.write(\'\\n                <h6 class="my-0">Vale da Viagem Vendedor</h6> <small class="text-muted">Vendedores pegaram na viagem</small>\\n              </div> <span class="text-muted">R$ \', escape=False)\nresponse.write(projeto.total_vale_caderno_vendedor)\nresponse.write(\'0</span>\\n            </li>\\n            <li class="list-group-item d-flex justify-content-between">\\n              <div>\', escape=False)\ndiferenca-=projeto.total_vale_caderno_funcionario\nresponse.write(\'\\n                <h6 class="my-0">Vale da Viagem Funcionario</h6> <small class="text-muted">Funcionarios pegaram na viagem</small>\\n              </div> <span class="text-muted">R$ \', escape=False)\nresponse.write(projeto.total_vale_caderno_funcionario)\nresponse.write(\'0</span>\\n            </li>\\n            <li class="list-group-item d-flex justify-content-between">\\n              <div>\', escape=False)\ndiferenca-=projeto.devolucao_dinh_venda\nresponse.write(\'\\n                <h6 class="my-0">Devolu\\xc3\\xa7\\xc3\\xa3o em Dinheiro</h6> <small class="text-muted">Retorno em dinheiro da venda</small>\\n              </div> <span class="text-muted">R$ \', escape=False)\nresponse.write(projeto.devolucao_dinh_venda)\nresponse.write(\'0</span>\\n            </li>\\n            <li class="list-group-item d-flex justify-content-between bg-light">\\n              <div class="text-success">\\n                  \', escape=False)\nif diferenca > 0.0:\n    response.write(\'\\n                                       \\n                <h6 class="my-0"><b class="text-danger">Difer\\xc3\\xaan\\xc3\\xa7a da Presta\\xc3\\xa7\\xc3\\xa3o</b></h6> <small class="text-danger"># Difer\\xc3\\xaan\\xc3\\xa7a&nbsp;</small>\\n              </div> <span class="text-danger">R$ \', escape=False)\n    response.write(diferenca)\n    response.write(\'0</span>\\n                      \', escape=False)\n    alse:\n        response.write(\'\\n                      <h6 class="my-0"><b class="text-danger">Esta sobrando Dinheiro</b></h6> <small class="text-danger"># N\\xc3\\xa3o se gasta mais do que se recebe</small>\\n              </div> <span class="text-danger">Erro</span>\\n                    \', escape=False)\n        pass\n    response.write(\'\\n            </li>\\n          </ul>\\n       </div>\\n     \\n                  <div class="col-md-6"><br>\\n          <h4 class="d-flex justify-content-between mb-3"> <span class="text-muted">Saldo Chefe&nbsp;</span> </h4>\\n          <ul class="list-group">\\n            <li class="list-group-item d-flex justify-content-between">\\n              <div>\\n                <h6 class="my-0">Total Venda \\xc3\\xa0 Praso</h6> <small class="text-muted">Total Venda Comissionada</small>\\n              </div> <span class="text-muted">R$  \', escape=False)\n    response.write(projeto.total_venda)\n    response.write(\'0</span>\\n            </li>\\n            <li class="list-group-item d-flex justify-content-between">\\n                \', escape=False)\n    comissaochef=0.0\n    response.write(\'\\n              <div>\', escape=False)\n    if projeto.total_venda > 0:\n        response.write(\'\\n                   \', escape=False)\n        comissaochef=projeto.total_venda*projeto.comissao_chefe_venda/100\n        response.write(\'\\n                  \', escape=False)\n        pass\n    response.write(\'\\n                <h6 class="my-0">Comiss\\xc3\\xa3o<br></h6> <small class="text-muted">\', escape=False)\n    response.write(projeto.comissao_chefe_venda)\n    response.write(\'%</small>\\n              </div> <span class="text-muted">R$ \', escape=False)\n    response.write(comissaochef)\n    response.write(\'0</span>\\n            </li>\\n            <li class="list-group-item d-flex justify-content-between">\\n              <div>\\n                <h6 class="my-0">Vale</h6> <small class="text-muted">Vale de saida do chefe</small>\\n              </div> <span class="text-muted">R$ \', escape=False)\n    response.write(projeto.vale_saida_chefe)\n    response.write(\'0</span>\\n            </li>\\n            <li class="list-group-item d-flex justify-content-between bg-light" >\\n              <div class="text-success">\\n                <h6 class="my-0"><b class="text-danger">Difer\\xc3\\xaan\\xc3\\xa7a da Presta\\xc3\\xa7\\xc3\\xa3o</b></h6> <small class="text-danger">Dinheiro descontado do chefe</small>\\n              </div> <span class="text-danger">R$ \', escape=False)\n    response.write(diferenca)\n    response.write(\'0</span>\\n            </li>\\n            <li class="list-group-item d-flex justify-content-between">\\n              <div>\', escape=False)\n    saldochefe=comissaochef-projeto.vale_saida_chefe-diferenca\n    response.write(\'\\n                <h6 class="my-0">Saldo do Chefe</h6> <small class="text-muted">Recebimento ou Debito do chefe</small>\\n              </div> <span class="text-muted">R$ \', escape=False)\n    response.write(saldochefe)\n    response.write(\'0</span>\\n            </li>\\n              <li class="list-group-item d-flex justify-content-between"> <span>Dinheiro Recebido </span> <b contenteditable="true">R$ \', escape=False)\n    response.write(projeto.recebido_chegada_venda)\n    response.write(\'0</b> </li>\\n          </ul>\\n        </div>\\n      </div>\\n    </div>\\n  </div>\\n\\n\', escape=False)\n    projeto.total_venda_vista=avista\n    response.write(\'\\n                    \', escape=False)\n    projeto.update_record()\n    response.write(\'\\n\', escape=False)\n    response.write(\'\\n      \', escape=False)\n    response.write(response.toolbar() if response.show_toolbar else \'\')\n    response.write(\'\\n    </div></div></div></div></div>\\n\\n    \', escape=False)\n    response.write(\' <!-- this is default footer -->\\n    <footer class="footer container-fluid">\\n      <div class="row">\\n        <div class="col-md-12">\\n          <div class="copyright pull-left">\', escape=False)\n    response.write(T(\'Copyright\'))\n    response.write(\' &#169; \', escape=False)\n    response.write(request.now.year)\n    response.write(\'</div>\\n          <div id="poweredBy" class="pull-right">\\n            \', escape=False)\n    response.write(T(\'Powered by\'))\n    response.write(\'\\n            <a href="#">Python</a>\\n          </div>\\n        </div>\\n      </div>\\n    </footer>\\n    \', escape=False)\n    response.write(\'\\n    <!-- The javascript =============================== -->\\n    <script src="\', escape=False)\n    response.write(URL(\'static\',\'js/bootstrap.bundle.min.js\'))\n    response.write(\'"></script>\\n    <script src="\', escape=False)\n    response.write(URL(\'static\',\'js/web2py-bootstrap4.js\'))\n    response.write(\'"></script>\\n    \', escape=False)\n    response.write(\'\\n    \', escape=False)\n    if response.google_analytics_id:\n        response.write(\'\\n    <!-- Analytics ==================================== -->\\n    <script src="\', escape=False)\n        response.write(URL(\'static\',\'js/analytics.min.js\'))\n        response.write(\'"></script>\\n    <script type="text/javascript">\\n      analytics.initialize({\\n      \\\'Google Analytics\\\':{trackingId:\\\'\', escape=False)\n        response.write(response.google_analytics_id)\n        response.write("\'}\\n      });\\n    </script>\\n    ", escape=False)\n        pass\n    response.write(\'\\n  </body>\\n</html>\\n\', escape=False)'
p7
sS'snapshot'
p8
(dp9
sS'traceback'
p10
S'None\n'
p11
s.